; Function Attrs: mustprogress nofree norecurse nosync nounwind willreturn memory(argmem: read) uwtable
define hidden noundef range(i32 0, 9) i32 @_ZNK3dpx13GenericHeader18ComponentByteCountEi(ptr noundef nonnull readonly align 4 captures(none) dereferenceable(1664) %0, i32 noundef %1) local_unnamed_addr #11 align 2 {
  %or.cond = icmp ugt i32 %1, 7
  br i1 %or.cond, label %12, label %3

3:                                                ; preds = %2
  %4 = getelementptr inbounds nuw i8, ptr %0, i64 780
  %narrow = mul nuw nsw i32 %1, 72
  %5 = zext nneg i32 %narrow to i64
  %6 = getelementptr inbounds nuw i8, ptr %4, i64 %5
  %7 = getelementptr inbounds nuw i8, ptr %6, i64 23
  %8 = load i8, ptr %7, align 1, !tbaa !69
  switch i8 %8, label %11 [
    i8 8, label %12
    i8 10, label %9
    i8 12, label %9
    i8 16, label %9
    i8 32, label %10
  ]

9:                                                ; preds = %3, %3, %3
  br label %12

10:                                               ; preds = %3
  br label %12

11:                                               ; preds = %3
  br label %12

12:                                               ; preds = %9, %10, %11, %3, %2
  %.06 = phi i32 [ 0, %2 ], [ 8, %11 ], [ 4, %10 ], [ 2, %9 ], [ 1, %3 ]
  ret i32 %.06
}